target datalayout = "e-m:e-p270:32:32-p271:32:32-p272:64:64-i64:64-i128:128-f80:128-n8:16:32:64-S128"
target triple = "x86_64-unknown-linux-gnu"

@.str.11 = private unnamed_addr constant [3 x i8] c"} \00", align 1
@.str.12 = private unnamed_addr constant [3 x i8] c"}\0A\00", align 1

; Function Attrs: mustprogress uwtable
define linkonce_odr hidden void @_ZN6google8protobuf10TextFormat17BaseTextGenerator12PrintLiteralILm3EEEvRAT__Kc(ptr noundef nonnull align 8 dereferenceable(8) %this, ptr noundef nonnull align 1 dereferenceable(3) %text) #5 comdat align 2 {
entry:
  %this.addr = alloca ptr, align 8
  %text.addr = alloca ptr, align 8
  store ptr %this, ptr %this.addr, align 8
  store ptr %text, ptr %text.addr, align 8
  %this1 = load ptr, ptr %this.addr, align 8
  %0 = load ptr, ptr %text.addr, align 8
  %arraydecay = getelementptr inbounds [3 x i8], ptr %0, i64 0, i64 0
  %vtable = load ptr, ptr %this1, align 8
  %vfn = getelementptr inbounds ptr, ptr %vtable, i64 5
  %1 = load ptr, ptr %vfn, align 8
  call void %1(ptr noundef nonnull align 8 dereferenceable(8) %this1, ptr noundef %arraydecay, i64 noundef 2)
  ret void
}

; Function Attrs: mustprogress uwtable
define void @_ZNK6google8protobuf10TextFormat21FastFieldValuePrinter15PrintMessageEndERKNS0_7MessageEiibPNS1_17BaseTextGeneratorE(ptr noundef nonnull align 8 dereferenceable(8) %this, ptr noundef nonnull align 8 dereferenceable(16) %0, i32 noundef %1, i32 noundef %2, i1 noundef zeroext %single_line_mode, ptr noundef %generator) unnamed_addr #5 align 2 {
entry:
  %this.addr = alloca ptr, align 8
  %.addr = alloca ptr, align 8
  %.addr1 = alloca i32, align 4
  %.addr2 = alloca i32, align 4
  %single_line_mode.addr = alloca i8, align 1
  %generator.addr = alloca ptr, align 8
  store ptr %this, ptr %this.addr, align 8
  store ptr %0, ptr %.addr, align 8
  store i32 %1, ptr %.addr1, align 4
  store i32 %2, ptr %.addr2, align 4
  %frombool = zext i1 %single_line_mode to i8
  store i8 %frombool, ptr %single_line_mode.addr, align 1
  store ptr %generator, ptr %generator.addr, align 8
  %3 = load i8, ptr %single_line_mode.addr, align 1
  %tobool = trunc i8 %3 to i1
  br i1 %tobool, label %if.then, label %if.else

if.then:                                          ; preds = %entry
  %4 = load ptr, ptr %generator.addr, align 8
  call void @_ZN6google8protobuf10TextFormat17BaseTextGenerator12PrintLiteralILm3EEEvRAT__Kc(ptr noundef nonnull align 8 dereferenceable(8) %4, ptr noundef nonnull align 1 dereferenceable(3) @.str.11)
  br label %if.end

if.else:                                          ; preds = %entry
  %5 = load ptr, ptr %generator.addr, align 8
  call void @_ZN6google8protobuf10TextFormat17BaseTextGenerator12PrintLiteralILm3EEEvRAT__Kc(ptr noundef nonnull align 8 dereferenceable(8) %5, ptr noundef nonnull align 1 dereferenceable(3) @.str.12)
  br label %if.end

if.end:                                           ; preds = %if.else, %if.then
  ret void
}