; Function Attrs: mustprogress uwtable
define void @_ZNK6google8protobuf10TextFormat21FastFieldValuePrinter15PrintMessageEndERKNS0_7MessageEiibPNS1_17BaseTextGeneratorE(ptr nocapture nonnull readnone align 8 %this, ptr nocapture nonnull readnone align 8 %0, i32 %1, i32 %2, i1 noundef zeroext %single_line_mode, ptr noundef %generator) unnamed_addr #4 align 2 {
entry:
  %vtable.i = load ptr, ptr %generator, align 8
  %vfn.i = getelementptr inbounds i8, ptr %vtable.i, i64 40
  %3 = load ptr, ptr %vfn.i, align 8
  %.str.11..str.12 = select i1 %single_line_mode, ptr @.str.11, ptr @.str.12
  tail call void %3(ptr noundef nonnull align 8 dereferenceable(8) %generator, ptr noundef nonnull %.str.11..str.12, i64 noundef 2)
  ret void
}